target datalayout = "e-m:e-p270:32:32-p271:32:32-p272:64:64-i64:64-i128:128-f80:128-n8:16:32:64-S128"
target triple = "x86_64-pc-linux-gnu"

%struct.bn_mont_ctx_st = type { %struct.bignum_st, %struct.bignum_st, [2 x i64] }
%struct.bignum_st = type { ptr, i32, i32, i32, i32 }

; Function Attrs: nounwind uwtable
define hidden i32 @BN_mod_mul_montgomery(ptr noundef %0, ptr noundef %1, ptr noundef %2, ptr noundef %3, ptr noundef %4) #0 {
  %6 = alloca i32, align 4
  %7 = alloca ptr, align 8
  %8 = alloca ptr, align 8
  %9 = alloca ptr, align 8
  %10 = alloca ptr, align 8
  %11 = alloca ptr, align 8
  %12 = alloca ptr, align 8
  %13 = alloca i32, align 4
  %14 = alloca i32, align 4
  %15 = alloca i32, align 4
  store ptr %0, ptr %7, align 8, !tbaa !13
  store ptr %1, ptr %8, align 8, !tbaa !13
  store ptr %2, ptr %9, align 8, !tbaa !13
  store ptr %3, ptr %10, align 8, !tbaa !6
  store ptr %4, ptr %11, align 8, !tbaa !15
  call void @llvm.lifetime.start.p0(i64 8, ptr %12) #6
  call void @llvm.lifetime.start.p0(i64 4, ptr %13) #6
  store i32 0, ptr %13, align 4, !tbaa !17
  call void @llvm.lifetime.start.p0(i64 4, ptr %14) #6
  %16 = load ptr, ptr %10, align 8, !tbaa !6
  %17 = getelementptr inbounds nuw %struct.bn_mont_ctx_st, ptr %16, i32 0, i32 1
  %18 = getelementptr inbounds nuw %struct.bignum_st, ptr %17, i32 0, i32 1
  %19 = load i32, ptr %18, align 8, !tbaa !31
  store i32 %19, ptr %14, align 4, !tbaa !17
  %20 = load i32, ptr %14, align 4, !tbaa !17
  %21 = icmp sgt i32 %20, 1
  br i1 %21, label %22, label %76

22:                                               ; preds = %5
  %23 = load ptr, ptr %8, align 8, !tbaa !13
  %24 = getelementptr inbounds nuw %struct.bignum_st, ptr %23, i32 0, i32 1
  %25 = load i32, ptr %24, align 8, !tbaa !26
  %26 = load i32, ptr %14, align 4, !tbaa !17
  %27 = icmp eq i32 %25, %26
  br i1 %27, label %28, label %76

28:                                               ; preds = %22
  %29 = load ptr, ptr %9, align 8, !tbaa !13
  %30 = getelementptr inbounds nuw %struct.bignum_st, ptr %29, i32 0, i32 1
  %31 = load i32, ptr %30, align 8, !tbaa !26
  %32 = load i32, ptr %14, align 4, !tbaa !17
  %33 = icmp eq i32 %31, %32
  br i1 %33, label %34, label %76

34:                                               ; preds = %28
  %35 = load ptr, ptr %7, align 8, !tbaa !13
  %36 = load i32, ptr %14, align 4, !tbaa !17
  %37 = sext i32 %36 to i64
  %38 = call ptr @bn_wexpand(ptr noundef %35, i64 noundef %37)
  %39 = icmp eq ptr %38, null
  br i1 %39, label %40, label %41

40:                                               ; preds = %34
  store i32 0, ptr %6, align 4
  store i32 1, ptr %15, align 4
  br label %115

41:                                               ; preds = %34
  %42 = load ptr, ptr %7, align 8, !tbaa !13
  %43 = getelementptr inbounds nuw %struct.bignum_st, ptr %42, i32 0, i32 0
  %44 = load ptr, ptr %43, align 8, !tbaa !23
  %45 = load ptr, ptr %8, align 8, !tbaa !13
  %46 = getelementptr inbounds nuw %struct.bignum_st, ptr %45, i32 0, i32 0
  %47 = load ptr, ptr %46, align 8, !tbaa !23
  %48 = load ptr, ptr %9, align 8, !tbaa !13
  %49 = getelementptr inbounds nuw %struct.bignum_st, ptr %48, i32 0, i32 0
  %50 = load ptr, ptr %49, align 8, !tbaa !23
  %51 = load ptr, ptr %10, align 8, !tbaa !6
  %52 = getelementptr inbounds nuw %struct.bn_mont_ctx_st, ptr %51, i32 0, i32 1
  %53 = getelementptr inbounds nuw %struct.bignum_st, ptr %52, i32 0, i32 0
  %54 = load ptr, ptr %53, align 8, !tbaa !32
  %55 = load ptr, ptr %10, align 8, !tbaa !6
  %56 = getelementptr inbounds nuw %struct.bn_mont_ctx_st, ptr %55, i32 0, i32 2
  %57 = getelementptr inbounds [2 x i64], ptr %56, i64 0, i64 0
  %58 = load i32, ptr %14, align 4, !tbaa !17
  %59 = call i32 @bn_mul_mont(ptr noundef %44, ptr noundef %47, ptr noundef %50, ptr noundef %54, ptr noundef %57, i32 noundef %58)
  %60 = icmp ne i32 %59, 0
  br i1 %60, label %61, label %75

61:                                               ; preds = %41
  %62 = load ptr, ptr %8, align 8, !tbaa !13
  %63 = getelementptr inbounds nuw %struct.bignum_st, ptr %62, i32 0, i32 3
  %64 = load i32, ptr %63, align 8, !tbaa !25
  %65 = load ptr, ptr %9, align 8, !tbaa !13
  %66 = getelementptr inbounds nuw %struct.bignum_st, ptr %65, i32 0, i32 3
  %67 = load i32, ptr %66, align 8, !tbaa !25
  %68 = xor i32 %64, %67
  %69 = load ptr, ptr %7, align 8, !tbaa !13
  %70 = getelementptr inbounds nuw %struct.bignum_st, ptr %69, i32 0, i32 3
  store i32 %68, ptr %70, align 8, !tbaa !25
  %71 = load i32, ptr %14, align 4, !tbaa !17
  %72 = load ptr, ptr %7, align 8, !tbaa !13
  %73 = getelementptr inbounds nuw %struct.bignum_st, ptr %72, i32 0, i32 1
  store i32 %71, ptr %73, align 8, !tbaa !26
  %74 = load ptr, ptr %7, align 8, !tbaa !13
  call void @bn_correct_top(ptr noundef %74)
  store i32 1, ptr %6, align 4
  store i32 1, ptr %15, align 4
  br label %115

75:                                               ; preds = %41
  br label %76

76:                                               ; preds = %75, %28, %22, %5
  %77 = load ptr, ptr %11, align 8, !tbaa !15
  call void @BN_CTX_start(ptr noundef %77)
  %78 = load ptr, ptr %11, align 8, !tbaa !15
  %79 = call ptr @BN_CTX_get(ptr noundef %78)
  store ptr %79, ptr %12, align 8, !tbaa !13
  %80 = load ptr, ptr %12, align 8, !tbaa !13
  %81 = icmp eq ptr %80, null
  br i1 %81, label %82, label %83

82:                                               ; preds = %76
  br label %112

83:                                               ; preds = %76
  %84 = load ptr, ptr %8, align 8, !tbaa !13
  %85 = load ptr, ptr %9, align 8, !tbaa !13
  %86 = icmp eq ptr %84, %85
  br i1 %86, label %87, label %95

87:                                               ; preds = %83
  %88 = load ptr, ptr %12, align 8, !tbaa !13
  %89 = load ptr, ptr %8, align 8, !tbaa !13
  %90 = load ptr, ptr %11, align 8, !tbaa !15
  %91 = call i32 @BN_sqr(ptr noundef %88, ptr noundef %89, ptr noundef %90)
  %92 = icmp ne i32 %91, 0
  br i1 %92, label %94, label %93

93:                                               ; preds = %87
  br label %112

94:                                               ; preds = %87
  br label %104

95:                                               ; preds = %83
  %96 = load ptr, ptr %12, align 8, !tbaa !13
  %97 = load ptr, ptr %8, align 8, !tbaa !13
  %98 = load ptr, ptr %9, align 8, !tbaa !13
  %99 = load ptr, ptr %11, align 8, !tbaa !15
  %100 = call i32 @BN_mul(ptr noundef %96, ptr noundef %97, ptr noundef %98, ptr noundef %99)
  %101 = icmp ne i32 %100, 0
  br i1 %101, label %103, label %102

102:                                              ; preds = %95
  br label %112

103:                                              ; preds = %95
  br label %104

104:                                              ; preds = %103, %94
  %105 = load ptr, ptr %7, align 8, !tbaa !13
  %106 = load ptr, ptr %12, align 8, !tbaa !13
  %107 = load ptr, ptr %10, align 8, !tbaa !6
  %108 = call i32 @BN_from_montgomery_word(ptr noundef %105, ptr noundef %106, ptr noundef %107)
  %109 = icmp ne i32 %108, 0
  br i1 %109, label %111, label %110

110:                                              ; preds = %104
  br label %112

111:                                              ; preds = %104
  store i32 1, ptr %13, align 4, !tbaa !17
  br label %112

112:                                              ; preds = %111, %110, %102, %93, %82
  %113 = load ptr, ptr %11, align 8, !tbaa !15
  call void @BN_CTX_end(ptr noundef %113)
  %114 = load i32, ptr %13, align 4, !tbaa !17
  store i32 %114, ptr %6, align 4
  store i32 1, ptr %15, align 4
  br label %115

115:                                              ; preds = %112, %61, %40
  call void @llvm.lifetime.end.p0(i64 4, ptr %14) #6
  call void @llvm.lifetime.end.p0(i64 4, ptr %13) #6
  call void @llvm.lifetime.end.p0(i64 8, ptr %12) #6
  %116 = load i32, ptr %6, align 4
  ret i32 %116
}