; Function Attrs: nounwind uwtable
define hidden range(i32 0, 2) i32 @BN_mod_mul_montgomery(ptr noundef %0, ptr noundef %1, ptr noundef %2, ptr noundef %3, ptr noundef %4) local_unnamed_addr #0 {
  %6 = getelementptr inbounds nuw i8, ptr %3, i64 24
  %7 = getelementptr inbounds nuw i8, ptr %3, i64 32
  %8 = load i32, ptr %7, align 8, !tbaa !22
  %9 = icmp sgt i32 %8, 1
  br i1 %9, label %10, label %37

10:                                               ; preds = %5
  %11 = getelementptr inbounds nuw i8, ptr %1, i64 8
  %12 = load i32, ptr %11, align 8, !tbaa !19
  %13 = icmp eq i32 %12, %8
  br i1 %13, label %14, label %37

14:                                               ; preds = %10
  %15 = getelementptr inbounds nuw i8, ptr %2, i64 8
  %16 = load i32, ptr %15, align 8, !tbaa !19
  %17 = icmp eq i32 %16, %8
  br i1 %17, label %18, label %37

18:                                               ; preds = %14
  %19 = zext nneg i32 %8 to i64
  %20 = tail call ptr @bn_wexpand(ptr noundef %0, i64 noundef %19) #6
  %21 = icmp eq ptr %20, null
  br i1 %21, label %49, label %22

22:                                               ; preds = %18
  %23 = load ptr, ptr %0, align 8, !tbaa !16
  %24 = load ptr, ptr %1, align 8, !tbaa !16
  %25 = load ptr, ptr %2, align 8, !tbaa !16
  %26 = load ptr, ptr %6, align 8, !tbaa !23
  %27 = getelementptr inbounds nuw i8, ptr %3, i64 48
  %28 = tail call i32 @bn_mul_mont(ptr noundef %23, ptr noundef %24, ptr noundef %25, ptr noundef %26, ptr noundef nonnull %27, i32 noundef %8) #6
  %.not = icmp eq i32 %28, 0
  br i1 %.not, label %37, label %29

29:                                               ; preds = %22
  %30 = getelementptr inbounds nuw i8, ptr %1, i64 16
  %31 = load i32, ptr %30, align 8, !tbaa !18
  %32 = getelementptr inbounds nuw i8, ptr %2, i64 16
  %33 = load i32, ptr %32, align 8, !tbaa !18
  %34 = xor i32 %33, %31
  %35 = getelementptr inbounds nuw i8, ptr %0, i64 16
  store i32 %34, ptr %35, align 8, !tbaa !18
  %36 = getelementptr inbounds nuw i8, ptr %0, i64 8
  store i32 %8, ptr %36, align 8, !tbaa !19
  tail call void @bn_correct_top(ptr noundef nonnull %0) #6
  br label %49

37:                                               ; preds = %22, %14, %10, %5
  tail call void @BN_CTX_start(ptr noundef %4) #6
  %38 = tail call ptr @BN_CTX_get(ptr noundef %4) #6
  %39 = icmp eq ptr %38, null
  br i1 %39, label %48, label %40

40:                                               ; preds = %37
  %41 = icmp eq ptr %1, %2
  br i1 %41, label %42, label %44

42:                                               ; preds = %40
  %43 = tail call i32 @BN_sqr(ptr noundef nonnull %38, ptr noundef %1, ptr noundef %4) #6
  %.not43 = icmp eq i32 %43, 0
  br i1 %.not43, label %48, label %46

44:                                               ; preds = %40
  %45 = tail call i32 @BN_mul(ptr noundef nonnull %38, ptr noundef %1, ptr noundef %2, ptr noundef %4) #6
  %.not42 = icmp eq i32 %45, 0
  br i1 %.not42, label %48, label %46

46:                                               ; preds = %44, %42
  %47 = tail call fastcc i32 @BN_from_montgomery_word(ptr noundef %0, ptr noundef %38, ptr noundef nonnull %3)
  br label %48

48:                                               ; preds = %46, %44, %42, %37
  %.037 = phi i32 [ 0, %37 ], [ 0, %42 ], [ 0, %44 ], [ %47, %46 ]
  tail call void @BN_CTX_end(ptr noundef %4) #6
  br label %49

49:                                               ; preds = %18, %48, %29
  %.0 = phi i32 [ 1, %29 ], [ %.037, %48 ], [ 0, %18 ]
  ret i32 %.0
}